target datalayout = "e-m:e-p270:32:32-p271:32:32-p272:64:64-i64:64-i128:128-f80:128-n8:16:32:64-S128"
target triple = "x86_64-pc-linux-gnu"

%"class.rocksdb::MemTableListVersion" = type { %"class.std::__cxx11::list", %"class.std::__cxx11::list", i32, i64, i32, ptr, i64 }
%"class.std::__cxx11::list" = type { %"class.std::__cxx11::_List_base" }
%"class.std::__cxx11::_List_base" = type { %"struct.std::__cxx11::_List_base<rocksdb::ReadOnlyMemTable *, std::allocator<rocksdb::ReadOnlyMemTable *>>::_List_impl" }
%"struct.std::__cxx11::_List_base<rocksdb::ReadOnlyMemTable *, std::allocator<rocksdb::ReadOnlyMemTable *>>::_List_impl" = type { %"struct.std::__detail::_List_node_header" }
%"struct.std::__detail::_List_node_header" = type { %"struct.std::__detail::_List_node_base", i64 }
%"struct.std::__detail::_List_node_base" = type { ptr, ptr }
%"struct.std::_List_iterator" = type { ptr }
%"struct.std::_List_node" = type { %"struct.std::__detail::_List_node_base", %"struct.__gnu_cxx::__aligned_membuf" }
%"struct.__gnu_cxx::__aligned_membuf" = type { [8 x i8] }
%"class.rocksdb::MultiGetContext::Range" = type { ptr, i64, i64, i64, i64 }
%"class.rocksdb::MultiGetContext" = type { [3584 x i8], %"struct.std::array.375", i64, i64, i64, %"class.std::unique_ptr.376", ptr }
%"struct.std::array.375" = type { [32 x ptr] }
%"class.std::unique_ptr.376" = type { %"struct.std::__uniq_ptr_data.377" }
%"struct.std::__uniq_ptr_data.377" = type { %"class.std::__uniq_ptr_impl.378" }
%"class.std::__uniq_ptr_impl.378" = type { %"class.std::tuple.379" }
%"class.std::tuple.379" = type { %"struct.std::_Tuple_impl.380" }
%"struct.std::_Tuple_impl.380" = type { %"struct.std::_Head_base.383" }
%"struct.std::_Head_base.383" = type { ptr }

; Function Attrs: mustprogress nounwind uwtable
define linkonce_odr noundef ptr @_ZN9__gnu_cxx16__aligned_membufIPN7rocksdb16ReadOnlyMemTableEE7_M_addrEv(ptr noundef nonnull align 8 dereferenceable(8) %0) #3 comdat align 2 {
  %2 = alloca ptr, align 8
  store ptr %0, ptr %2, align 8, !tbaa !758
  %3 = load ptr, ptr %2, align 8
  %4 = getelementptr inbounds nuw %"struct.__gnu_cxx::__aligned_membuf", ptr %3, i32 0, i32 0
  ret ptr %4
}

; Function Attrs: mustprogress nounwind uwtable
define linkonce_odr noundef ptr @_ZN9__gnu_cxx16__aligned_membufIPN7rocksdb16ReadOnlyMemTableEE6_M_ptrEv(ptr noundef nonnull align 8 dereferenceable(8) %0) #3 comdat align 2 {
  %2 = alloca ptr, align 8
  store ptr %0, ptr %2, align 8, !tbaa !758
  %3 = load ptr, ptr %2, align 8
  %4 = call noundef ptr @_ZN9__gnu_cxx16__aligned_membufIPN7rocksdb16ReadOnlyMemTableEE7_M_addrEv(ptr noundef nonnull align 8 dereferenceable(8) %3) #4
  ret ptr %4
}

; Function Attrs: mustprogress nounwind uwtable
define linkonce_odr noundef i64 @_ZNK7rocksdb15MultiGetContext5Range13RemainingMaskEv(ptr noundef nonnull align 8 dereferenceable(40) %0) #3 comdat align 2 {
  %2 = alloca ptr, align 8
  store ptr %0, ptr %2, align 8, !tbaa !166
  %3 = load ptr, ptr %2, align 8
  %4 = getelementptr inbounds nuw %"class.rocksdb::MultiGetContext::Range", ptr %3, i32 0, i32 2
  %5 = load i64, ptr %4, align 8, !tbaa !760
  %6 = shl i64 1, %5
  %7 = sub i64 %6, 1
  %8 = getelementptr inbounds nuw %"class.rocksdb::MultiGetContext::Range", ptr %3, i32 0, i32 1
  %9 = load i64, ptr %8, align 8, !tbaa !763
  %10 = shl i64 1, %9
  %11 = sub i64 %10, 1
  %12 = xor i64 %11, -1
  %13 = and i64 %7, %12
  %14 = getelementptr inbounds nuw %"class.rocksdb::MultiGetContext::Range", ptr %3, i32 0, i32 0
  %15 = load ptr, ptr %14, align 8, !tbaa !764
  %16 = getelementptr inbounds nuw %"class.rocksdb::MultiGetContext", ptr %15, i32 0, i32 3
  %17 = load i64, ptr %16, align 8, !tbaa !765
  %18 = getelementptr inbounds nuw %"class.rocksdb::MultiGetContext::Range", ptr %3, i32 0, i32 3
  %19 = load i64, ptr %18, align 8, !tbaa !774
  %20 = or i64 %17, %19
  %21 = xor i64 %20, -1
  %22 = and i64 %13, %21
  ret i64 %22
}

; Function Attrs: mustprogress nounwind uwtable
define linkonce_odr noundef ptr @_ZNSt10_List_nodeIPN7rocksdb16ReadOnlyMemTableEE9_M_valptrEv(ptr noundef nonnull align 8 dereferenceable(24) %0) #3 comdat align 2 {
  %2 = alloca ptr, align 8
  store ptr %0, ptr %2, align 8, !tbaa !755
  %3 = load ptr, ptr %2, align 8
  %4 = getelementptr inbounds nuw %"struct.std::_List_node", ptr %3, i32 0, i32 1
  %5 = call noundef ptr @_ZN9__gnu_cxx16__aligned_membufIPN7rocksdb16ReadOnlyMemTableEE6_M_ptrEv(ptr noundef nonnull align 8 dereferenceable(8) %4) #4
  ret ptr %5
}

; Function Attrs: mustprogress nounwind uwtable
define linkonce_odr void @_ZNSt14_List_iteratorIPN7rocksdb16ReadOnlyMemTableEEC2EPNSt8__detail15_List_node_baseE(ptr noundef nonnull align 8 dereferenceable(8) %0, ptr noundef %1) unnamed_addr #3 comdat align 2 {
  %3 = alloca ptr, align 8
  %4 = alloca ptr, align 8
  store ptr %0, ptr %3, align 8, !tbaa !134
  store ptr %1, ptr %4, align 8, !tbaa !259
  %5 = load ptr, ptr %3, align 8
  %6 = getelementptr inbounds nuw %"struct.std::_List_iterator", ptr %5, i32 0, i32 0
  %7 = load ptr, ptr %4, align 8, !tbaa !259
  store ptr %7, ptr %6, align 8, !tbaa !136
  ret void
}

; Function Attrs: mustprogress nounwind uwtable
define linkonce_odr noundef nonnull align 8 dereferenceable(8) ptr @_ZNSt14_List_iteratorIPN7rocksdb16ReadOnlyMemTableEEppEv(ptr noundef nonnull align 8 dereferenceable(8) %0) #3 comdat align 2 {
  %2 = alloca ptr, align 8
  store ptr %0, ptr %2, align 8, !tbaa !134
  %3 = load ptr, ptr %2, align 8
  %4 = getelementptr inbounds nuw %"struct.std::_List_iterator", ptr %3, i32 0, i32 0
  %5 = load ptr, ptr %4, align 8, !tbaa !136
  %6 = getelementptr inbounds nuw %"struct.std::__detail::_List_node_base", ptr %5, i32 0, i32 0
  %7 = load ptr, ptr %6, align 8, !tbaa !65
  %8 = getelementptr inbounds nuw %"struct.std::_List_iterator", ptr %3, i32 0, i32 0
  store ptr %7, ptr %8, align 8, !tbaa !136
  ret ptr %3
}

; Function Attrs: mustprogress uwtable
define linkonce_odr noundef zeroext i1 @_ZNK7rocksdb15MultiGetContext5Range5emptyEv(ptr noundef nonnull align 8 dereferenceable(40) %0) #5 comdat align 2 {
  %2 = alloca ptr, align 8
  store ptr %0, ptr %2, align 8, !tbaa !166
  %3 = load ptr, ptr %2, align 8
  %4 = call noundef i64 @_ZNK7rocksdb15MultiGetContext5Range13RemainingMaskEv(ptr noundef nonnull align 8 dereferenceable(40) %3)
  %5 = icmp eq i64 %4, 0
  ret i1 %5
}

; Function Attrs: mustprogress nounwind uwtable
define linkonce_odr noundef nonnull align 8 dereferenceable(8) ptr @_ZNKSt14_List_iteratorIPN7rocksdb16ReadOnlyMemTableEEdeEv(ptr noundef nonnull align 8 dereferenceable(8) %0) #3 comdat align 2 {
  %2 = alloca ptr, align 8
  store ptr %0, ptr %2, align 8, !tbaa !134
  %3 = load ptr, ptr %2, align 8
  %4 = getelementptr inbounds nuw %"struct.std::_List_iterator", ptr %3, i32 0, i32 0
  %5 = load ptr, ptr %4, align 8, !tbaa !136
  %6 = call noundef ptr @_ZNSt10_List_nodeIPN7rocksdb16ReadOnlyMemTableEE9_M_valptrEv(ptr noundef nonnull align 8 dereferenceable(24) %5)
  ret ptr %6
}

; Function Attrs: mustprogress nounwind uwtable
define linkonce_odr noundef zeroext i1 @_ZStneRKSt14_List_iteratorIPN7rocksdb16ReadOnlyMemTableEES5_(ptr noundef nonnull align 8 dereferenceable(8) %0, ptr noundef nonnull align 8 dereferenceable(8) %1) #3 comdat {
  %3 = alloca ptr, align 8
  %4 = alloca ptr, align 8
  store ptr %0, ptr %3, align 8, !tbaa !134
  store ptr %1, ptr %4, align 8, !tbaa !134
  %5 = load ptr, ptr %3, align 8, !tbaa !134
  %6 = getelementptr inbounds nuw %"struct.std::_List_iterator", ptr %5, i32 0, i32 0
  %7 = load ptr, ptr %6, align 8, !tbaa !136
  %8 = load ptr, ptr %4, align 8, !tbaa !134
  %9 = getelementptr inbounds nuw %"struct.std::_List_iterator", ptr %8, i32 0, i32 0
  %10 = load ptr, ptr %9, align 8, !tbaa !136
  %11 = icmp ne ptr %7, %10
  ret i1 %11
}

; Function Attrs: mustprogress nounwind uwtable
define linkonce_odr ptr @_ZNSt7__cxx114listIPN7rocksdb16ReadOnlyMemTableESaIS3_EE3endEv(ptr noundef nonnull align 8 dereferenceable(24) %0) #3 comdat align 2 {
  %2 = alloca %"struct.std::_List_iterator", align 8
  %3 = alloca ptr, align 8
  store ptr %0, ptr %3, align 8, !tbaa !63
  %4 = load ptr, ptr %3, align 8
  %5 = getelementptr inbounds nuw %"class.std::__cxx11::_List_base", ptr %4, i32 0, i32 0
  %6 = getelementptr inbounds nuw %"struct.std::__cxx11::_List_base<rocksdb::ReadOnlyMemTable *, std::allocator<rocksdb::ReadOnlyMemTable *>>::_List_impl", ptr %5, i32 0, i32 0
  call void @_ZNSt14_List_iteratorIPN7rocksdb16ReadOnlyMemTableEEC2EPNSt8__detail15_List_node_baseE(ptr noundef nonnull align 8 dereferenceable(8) %2, ptr noundef %6) #4
  %7 = getelementptr inbounds nuw %"struct.std::_List_iterator", ptr %2, i32 0, i32 0
  %8 = load ptr, ptr %7, align 8
  ret ptr %8
}

; Function Attrs: mustprogress nounwind uwtable
define linkonce_odr ptr @_ZNSt7__cxx114listIPN7rocksdb16ReadOnlyMemTableESaIS3_EE5beginEv(ptr noundef nonnull align 8 dereferenceable(24) %0) #3 comdat align 2 {
  %2 = alloca %"struct.std::_List_iterator", align 8
  %3 = alloca ptr, align 8
  store ptr %0, ptr %3, align 8, !tbaa !63
  %4 = load ptr, ptr %3, align 8
  %5 = getelementptr inbounds nuw %"class.std::__cxx11::_List_base", ptr %4, i32 0, i32 0
  %6 = getelementptr inbounds nuw %"struct.std::__cxx11::_List_base<rocksdb::ReadOnlyMemTable *, std::allocator<rocksdb::ReadOnlyMemTable *>>::_List_impl", ptr %5, i32 0, i32 0
  %7 = getelementptr inbounds nuw %"struct.std::__detail::_List_node_base", ptr %6, i32 0, i32 0
  %8 = load ptr, ptr %7, align 8, !tbaa !65
  call void @_ZNSt14_List_iteratorIPN7rocksdb16ReadOnlyMemTableEEC2EPNSt8__detail15_List_node_baseE(ptr noundef nonnull align 8 dereferenceable(8) %2, ptr noundef %8) #4
  %9 = getelementptr inbounds nuw %"struct.std::_List_iterator", ptr %2, i32 0, i32 0
  %10 = load ptr, ptr %9, align 8
  ret ptr %10
}

; Function Attrs: mustprogress uwtable
define void @_ZN7rocksdb19MemTableListVersion8MultiGetERKNS_11ReadOptionsEPNS_15MultiGetContext5RangeEPNS_12ReadCallbackE(ptr noundef nonnull align 8 dereferenceable(88) %0, ptr noundef nonnull align 8 dereferenceable(168) %1, ptr noundef %2, ptr noundef %3) #5 align 2 {
  %5 = alloca ptr, align 8
  %6 = alloca ptr, align 8
  %7 = alloca ptr, align 8
  %8 = alloca ptr, align 8
  %9 = alloca ptr, align 8
  %10 = alloca %"struct.std::_List_iterator", align 8
  %11 = alloca %"struct.std::_List_iterator", align 8
  %12 = alloca i32, align 4
  %13 = alloca ptr, align 8
  store ptr %0, ptr %5, align 8, !tbaa !48
  store ptr %1, ptr %6, align 8, !tbaa !157
  store ptr %2, ptr %7, align 8, !tbaa !166
  store ptr %3, ptr %8, align 8, !tbaa !159
  %14 = load ptr, ptr %5, align 8
  call void @llvm.lifetime.start.p0(i64 8, ptr %9) #4
  %15 = getelementptr inbounds nuw %"class.rocksdb::MemTableListVersion", ptr %14, i32 0, i32 0
  store ptr %15, ptr %9, align 8, !tbaa !63
  call void @llvm.lifetime.start.p0(i64 8, ptr %10) #4
  %16 = load ptr, ptr %9, align 8, !tbaa !63
  %17 = call ptr @_ZNSt7__cxx114listIPN7rocksdb16ReadOnlyMemTableESaIS3_EE5beginEv(ptr noundef nonnull align 8 dereferenceable(24) %16) #4
  %18 = getelementptr inbounds nuw %"struct.std::_List_iterator", ptr %10, i32 0, i32 0
  store ptr %17, ptr %18, align 8
  call void @llvm.lifetime.start.p0(i64 8, ptr %11) #4
  %19 = load ptr, ptr %9, align 8, !tbaa !63
  %20 = call ptr @_ZNSt7__cxx114listIPN7rocksdb16ReadOnlyMemTableESaIS3_EE3endEv(ptr noundef nonnull align 8 dereferenceable(24) %19) #4
  %21 = getelementptr inbounds nuw %"struct.std::_List_iterator", ptr %11, i32 0, i32 0
  store ptr %20, ptr %21, align 8
  br label %22

22:                                               ; preds = %42, %4
  %23 = call noundef zeroext i1 @_ZStneRKSt14_List_iteratorIPN7rocksdb16ReadOnlyMemTableEES5_(ptr noundef nonnull align 8 dereferenceable(8) %10, ptr noundef nonnull align 8 dereferenceable(8) %11) #4
  br i1 %23, label %25, label %24

24:                                               ; preds = %22
  store i32 2, ptr %12, align 4
  br label %44

25:                                               ; preds = %22
  call void @llvm.lifetime.start.p0(i64 8, ptr %13) #4
  %26 = call noundef nonnull align 8 dereferenceable(8) ptr @_ZNKSt14_List_iteratorIPN7rocksdb16ReadOnlyMemTableEEdeEv(ptr noundef nonnull align 8 dereferenceable(8) %10) #4
  %27 = load ptr, ptr %26, align 8, !tbaa !50
  store ptr %27, ptr %13, align 8, !tbaa !50
  %28 = load ptr, ptr %13, align 8, !tbaa !50
  %29 = load ptr, ptr %6, align 8, !tbaa !157
  %30 = load ptr, ptr %7, align 8, !tbaa !166
  %31 = load ptr, ptr %8, align 8, !tbaa !159
  %32 = load ptr, ptr %28, align 8, !tbaa !52
  %33 = getelementptr inbounds ptr, ptr %32, i64 11
  %34 = load ptr, ptr %33, align 8
  call void %34(ptr noundef nonnull align 8 dereferenceable(560) %28, ptr noundef nonnull align 8 dereferenceable(168) %29, ptr noundef %30, ptr noundef %31, i1 noundef zeroext true)
  %35 = load ptr, ptr %7, align 8, !tbaa !166
  %36 = call noundef zeroext i1 @_ZNK7rocksdb15MultiGetContext5Range5emptyEv(ptr noundef nonnull align 8 dereferenceable(40) %35)
  br i1 %36, label %37, label %38

37:                                               ; preds = %25
  store i32 1, ptr %12, align 4
  br label %39

38:                                               ; preds = %25
  store i32 0, ptr %12, align 4
  br label %39

39:                                               ; preds = %38, %37
  call void @llvm.lifetime.end.p0(i64 8, ptr %13) #4
  %40 = load i32, ptr %12, align 4
  switch i32 %40, label %44 [
    i32 0, label %41
  ]

41:                                               ; preds = %39
  br label %42

42:                                               ; preds = %41
  %43 = call noundef nonnull align 8 dereferenceable(8) ptr @_ZNSt14_List_iteratorIPN7rocksdb16ReadOnlyMemTableEEppEv(ptr noundef nonnull align 8 dereferenceable(8) %10) #4
  br label %22

44:                                               ; preds = %39, %24
  call void @llvm.lifetime.end.p0(i64 8, ptr %11) #4
  call void @llvm.lifetime.end.p0(i64 8, ptr %10) #4
  call void @llvm.lifetime.end.p0(i64 8, ptr %9) #4
  %45 = load i32, ptr %12, align 4
  switch i32 %45, label %47 [
    i32 2, label %46
    i32 1, label %46
  ]

46:                                               ; preds = %44, %44
  ret void

47:                                               ; preds = %44
  unreachable
}