; Function Attrs: mustprogress uwtable
define void @_ZN7rocksdb19MemTableListVersion8MultiGetERKNS_11ReadOptionsEPNS_15MultiGetContext5RangeEPNS_12ReadCallbackE(ptr noundef nonnull readonly align 8 dereferenceable(88) %0, ptr noundef nonnull align 8 dereferenceable(168) %1, ptr noundef %2, ptr noundef %3) local_unnamed_addr #4 align 2 {
  %5 = getelementptr inbounds nuw i8, ptr %2, i64 16
  %6 = getelementptr inbounds nuw i8, ptr %2, i64 8
  %7 = getelementptr inbounds nuw i8, ptr %2, i64 24
  br label %8

8:                                                ; preds = %9, %4
  %.sroa.08.0.in = phi ptr [ %0, %4 ], [ %.sroa.08.0, %9 ]
  %.sroa.08.0 = load ptr, ptr %.sroa.08.0.in, align 8, !tbaa !18
  %.not = icmp eq ptr %.sroa.08.0, %0
  br i1 %.not, label %26, label %9

9:                                                ; preds = %8
  %10 = getelementptr inbounds nuw i8, ptr %.sroa.08.0, i64 16
  %11 = load ptr, ptr %10, align 8, !tbaa !21
  %12 = load ptr, ptr %11, align 8, !tbaa !27
  %13 = getelementptr inbounds nuw i8, ptr %12, i64 88
  %14 = load ptr, ptr %13, align 8
  tail call void %14(ptr noundef nonnull align 8 dereferenceable(560) %11, ptr noundef nonnull align 8 dereferenceable(168) %1, ptr noundef %2, ptr noundef %3, i1 noundef zeroext true)
  %15 = load i64, ptr %5, align 8, !tbaa !126
  %notmask.i.i = shl nsw i64 -1, %15
  %16 = load i64, ptr %6, align 8, !tbaa !129
  %17 = load ptr, ptr %2, align 8, !tbaa !130
  %18 = getelementptr inbounds nuw i8, ptr %17, i64 3848
  %19 = load i64, ptr %18, align 8, !tbaa !131
  %20 = load i64, ptr %7, align 8, !tbaa !141
  %21 = or i64 %19, %notmask.i.i
  %22 = or i64 %21, %20
  %23 = xor i64 %22, -1
  %24 = lshr i64 %23, %16
  %25 = icmp eq i64 %24, 0
  br i1 %25, label %26, label %8

26:                                               ; preds = %8, %9
  ret void
}